; Function Attrs: mustprogress nofree norecurse nosync nounwind willreturn memory(argmem: read) uwtable
define internal range(i32 0, 2) i32 @HIDAPI_DriverLg4ff_GetJoystickCapabilities(ptr noundef readonly captures(none) %0, ptr readnone captures(none) %1) #2 {
  %3 = getelementptr inbounds nuw i8, ptr %0, i64 34
  %4 = load i16, ptr %3, align 2
  %switch.selectcmp.case1 = icmp eq i16 %4, -15793
  %switch.selectcmp.case2 = icmp eq i16 %4, -15717
  %switch.selectcmp = or i1 %switch.selectcmp.case1, %switch.selectcmp.case2
  %5 = zext i1 %switch.selectcmp to i32
  ret i32 %5
}